target datalayout = "e-m:e-p270:32:32-p271:32:32-p272:64:64-i64:64-i128:128-f80:128-n8:16:32:64-S128"
target triple = "x86_64-pc-linux-gnu"

%"class.absl::lts_20240722::log_internal::Voidify" = type { i8 }
%"class.absl::lts_20240722::log_internal::LogMessage" = type { %"class.absl::lts_20240722::base_internal::ErrnoSaver", %"class.std::unique_ptr" }
%"class.absl::lts_20240722::base_internal::ErrnoSaver" = type { i32 }
%"class.std::unique_ptr" = type { %"struct.std::__uniq_ptr_data" }
%"struct.std::__uniq_ptr_data" = type { %"class.std::__uniq_ptr_impl" }
%"class.std::__uniq_ptr_impl" = type { %"class.std::tuple" }
%"class.std::tuple" = type { %"struct.std::_Tuple_impl" }
%"struct.std::_Tuple_impl" = type { %"struct.std::_Head_base.1" }
%"struct.std::_Head_base.1" = type { ptr }
%struct.grpc_slice = type { ptr, %"union.grpc_slice::grpc_slice_data" }
%"union.grpc_slice::grpc_slice_data" = type { %"struct.grpc_slice::grpc_slice_data::grpc_slice_refcounted", [8 x i8] }
%"struct.grpc_slice::grpc_slice_data::grpc_slice_refcounted" = type { i64, ptr }
%"class.std::basic_string_view" = type { i64, ptr }
%"class.absl::lts_20240722::log_internal::LogMessageFatal" = type { %"class.absl::lts_20240722::log_internal::LogMessage" }
%struct.alts_tsi_handshaker = type { %struct.tsi_handshaker, %struct.grpc_slice, i8, i8, i8, ptr, ptr, ptr, ptr, ptr, i8, %"class.absl::lts_20240722::Mutex", ptr, i8, i64 }
%struct.tsi_handshaker = type { ptr, i8, i8, i8 }
%"class.absl::lts_20240722::Mutex" = type { %"struct.std::atomic" }
%"struct.std::atomic" = type { %"struct.std::__atomic_base" }
%"struct.std::__atomic_base" = type { i64 }
%"class.std::__cxx11::basic_string" = type { %"struct.std::__cxx11::basic_string<char>::_Alloc_hider", i64, %union.anon }
%"struct.std::__cxx11::basic_string<char>::_Alloc_hider" = type { ptr }
%union.anon = type { i64, [8 x i8] }

@.str = private unnamed_addr constant [139 x i8] c"generated/home/dtcxzyw/WorkSpace/Projects/compilers/llvm-opt-benchmark/bench/grpc/grpc/src/core/tsi/alts/handshaker/alts_tsi_handshaker.cc\00", align 1
@.str.12 = private unnamed_addr constant [22 x i8] c"handshaker != nullptr\00", align 1

; Function Attrs: mustprogress nounwind uwtable
define available_externally noundef ptr @_ZNKSt7__cxx1112basic_stringIcSt11char_traitsIcESaIcEE7_M_dataEv(ptr noundef nonnull align 8 dereferenceable(32) %0) #6 align 2 {
  %2 = alloca ptr, align 8
  store ptr %0, ptr %2, align 8, !tbaa !71
  %3 = load ptr, ptr %2, align 8
  %4 = getelementptr inbounds nuw %"class.std::__cxx11::basic_string", ptr %3, i32 0, i32 0
  %5 = getelementptr inbounds nuw %"struct.std::__cxx11::basic_string<char>::_Alloc_hider", ptr %4, i32 0, i32 0
  %6 = load ptr, ptr %5, align 8, !tbaa !226
  ret ptr %6
}

; Function Attrs: mustprogress nounwind uwtable
define linkonce_odr void @_ZNSt17basic_string_viewIcSt11char_traitsIcEEC2EPKcm(ptr noundef nonnull align 8 dereferenceable(16) %0, ptr noundef %1, i64 noundef %2) unnamed_addr #6 comdat align 2 {
  %4 = alloca ptr, align 8
  %5 = alloca ptr, align 8
  %6 = alloca i64, align 8
  store ptr %0, ptr %4, align 8, !tbaa !118
  store ptr %1, ptr %5, align 8, !tbaa !39
  store i64 %2, ptr %6, align 8, !tbaa !40
  %7 = load ptr, ptr %4, align 8
  %8 = getelementptr inbounds nuw %"class.std::basic_string_view", ptr %7, i32 0, i32 0
  %9 = load i64, ptr %6, align 8, !tbaa !40
  store i64 %9, ptr %8, align 8, !tbaa !120
  %10 = getelementptr inbounds nuw %"class.std::basic_string_view", ptr %7, i32 0, i32 1
  %11 = load ptr, ptr %5, align 8, !tbaa !39
  store ptr %11, ptr %10, align 8, !tbaa !122
  ret void
}

; Function Attrs: mustprogress nounwind uwtable
define available_externally noundef i64 @_ZNKSt7__cxx1112basic_stringIcSt11char_traitsIcESaIcEE4sizeEv(ptr noundef nonnull align 8 dereferenceable(32) %0) #6 align 2 {
  %2 = alloca ptr, align 8
  store ptr %0, ptr %2, align 8, !tbaa !71
  %3 = load ptr, ptr %2, align 8
  %4 = getelementptr inbounds nuw %"class.std::__cxx11::basic_string", ptr %3, i32 0, i32 1
  %5 = load i64, ptr %4, align 8, !tbaa !223
  ret i64 %5
}

; Function Attrs: mustprogress nounwind uwtable
define available_externally noundef ptr @_ZNKSt7__cxx1112basic_stringIcSt11char_traitsIcESaIcEE4dataEv(ptr noundef nonnull align 8 dereferenceable(32) %0) #6 align 2 {
  %2 = alloca ptr, align 8
  store ptr %0, ptr %2, align 8, !tbaa !71
  %3 = load ptr, ptr %2, align 8
  %4 = call noundef ptr @_ZNKSt7__cxx1112basic_stringIcSt11char_traitsIcESaIcEE7_M_dataEv(ptr noundef nonnull align 8 dereferenceable(32) %3)
  ret ptr %4
}

; Function Attrs: mustprogress nounwind uwtable
define linkonce_odr void @_ZNKO4absl12lts_2024072212log_internal7VoidifyaaINS1_10LogMessageEEEvRKT_(ptr noundef nonnull align 1 dereferenceable(1) %0, ptr noundef nonnull align 8 dereferenceable(16) %1) #6 comdat align 2 {
  %3 = alloca ptr, align 8
  %4 = alloca ptr, align 8
  store ptr %0, ptr %3, align 8, !tbaa !52
  store ptr %1, ptr %4, align 8, !tbaa !54
  ret void
}

; Function Attrs: mustprogress nounwind uwtable
define linkonce_odr noundef nonnull align 8 dereferenceable(16) ptr @_ZN4absl12lts_2024072212log_internal10LogMessage14InternalStreamEv(ptr noundef nonnull align 8 dereferenceable(16) %0) #6 comdat align 2 {
  %2 = alloca ptr, align 8
  store ptr %0, ptr %2, align 8, !tbaa !54
  %3 = load ptr, ptr %2, align 8
  ret ptr %3
}

; Function Attrs: mustprogress nounwind uwtable
define available_externally { i64, ptr } @_ZNKSt7__cxx1112basic_stringIcSt11char_traitsIcESaIcEEcvSt17basic_string_viewIcS2_EEv(ptr noundef nonnull align 8 dereferenceable(32) %0) #6 align 2 {
  %2 = alloca %"class.std::basic_string_view", align 8
  %3 = alloca ptr, align 8
  store ptr %0, ptr %3, align 8, !tbaa !71
  %4 = load ptr, ptr %3, align 8
  %5 = call noundef ptr @_ZNKSt7__cxx1112basic_stringIcSt11char_traitsIcESaIcEE4dataEv(ptr noundef nonnull align 8 dereferenceable(32) %4) #3
  %6 = call noundef i64 @_ZNKSt7__cxx1112basic_stringIcSt11char_traitsIcESaIcEE4sizeEv(ptr noundef nonnull align 8 dereferenceable(32) %4) #3
  call void @_ZNSt17basic_string_viewIcSt11char_traitsIcEEC2EPKcm(ptr noundef nonnull align 8 dereferenceable(16) %2, ptr noundef %5, i64 noundef %6) #3
  %7 = load { i64, ptr }, ptr %2, align 8
  ret { i64, ptr } %7
}

; Function Attrs: inlinehint mustprogress uwtable
define linkonce_odr noundef ptr @_ZN4absl12lts_2024072212log_internal12Check_NEImplIP19alts_tsi_handshakerDnEEPNSt7__cxx1112basic_stringIcSt11char_traitsIcESaIcEEERKT_RKT0_PKc(ptr noundef nonnull align 8 dereferenceable(8) %0, ptr noundef nonnull align 8 dereferenceable(8) %1, ptr noundef %2) #9 comdat {
  %4 = alloca ptr, align 8
  %5 = alloca ptr, align 8
  %6 = alloca ptr, align 8
  store ptr %0, ptr %4, align 8, !tbaa !85
  store ptr %1, ptr %5, align 8, !tbaa !87
  store ptr %2, ptr %6, align 8, !tbaa !39
  %7 = load ptr, ptr %4, align 8, !tbaa !85
  %8 = load ptr, ptr %7, align 8, !tbaa !67
  %9 = icmp ne ptr %8, null
  %10 = zext i1 %9 to i64
  %11 = call i64 @llvm.expect.i64(i64 %10, i64 1)
  %12 = icmp ne i64 %11, 0
  br i1 %12, label %13, label %14

13:                                               ; preds = %3
  br label %19

14:                                               ; preds = %3
  %15 = load ptr, ptr %4, align 8, !tbaa !85
  %16 = load ptr, ptr %15, align 8, !tbaa !67
  %17 = load ptr, ptr %6, align 8, !tbaa !39
  %18 = call noundef nonnull ptr @_ZN4absl12lts_2024072212log_internal17MakeCheckOpStringIPKvS4_EEPNSt7__cxx1112basic_stringIcSt11char_traitsIcESaIcEEET_T0_PKc(ptr noundef %16, ptr noundef null, ptr noundef %17)
  br label %19

19:                                               ; preds = %14, %13
  %20 = phi ptr [ null, %13 ], [ %18, %14 ]
  ret ptr %20
}

; Function Attrs: inlinehint mustprogress nounwind uwtable
define linkonce_odr noundef nonnull align 8 dereferenceable(8) ptr @_ZN4absl12lts_2024072212log_internal21GetReferenceableValueIDnEERKT_S5_(ptr noundef nonnull align 8 dereferenceable(8) %0) #11 comdat {
  %2 = alloca ptr, align 8
  store ptr %0, ptr %2, align 8, !tbaa !87
  %3 = load ptr, ptr %2, align 8, !tbaa !87
  ret ptr %3
}

; Function Attrs: inlinehint mustprogress nounwind uwtable
define linkonce_odr noundef nonnull align 8 dereferenceable(8) ptr @_ZN4absl12lts_2024072212log_internal21GetReferenceableValueIP19alts_tsi_handshakerEERKT_S7_(ptr noundef nonnull align 8 dereferenceable(8) %0) #11 comdat {
  %2 = alloca ptr, align 8
  store ptr %0, ptr %2, align 8, !tbaa !85
  %3 = load ptr, ptr %2, align 8, !tbaa !85
  ret ptr %3
}

; Function Attrs: mustprogress uwtable
define noundef zeroext i1 @_ZN9grpc_core8internal58alts_tsi_handshaker_get_has_sent_start_message_for_testingEP19alts_tsi_handshaker(ptr noundef %0) #4 personality ptr @__gxx_personality_v0 {
  %2 = alloca ptr, align 8
  %3 = alloca ptr, align 8
  %4 = alloca ptr, align 8
  %5 = alloca %"class.absl::lts_20240722::log_internal::Voidify", align 1
  %6 = alloca %"class.absl::lts_20240722::log_internal::LogMessageFatal", align 8
  %7 = alloca %"class.std::basic_string_view", align 8
  %8 = alloca ptr, align 8
  %9 = alloca i32, align 4
  store ptr %0, ptr %2, align 8, !tbaa !67
  br label %10

10:                                               ; preds = %1
  call void @llvm.lifetime.start.p0(i64 8, ptr %3) #3
  %11 = call noundef nonnull align 8 dereferenceable(8) ptr @_ZN4absl12lts_2024072212log_internal21GetReferenceableValueIP19alts_tsi_handshakerEERKT_S7_(ptr noundef nonnull align 8 dereferenceable(8) %2)
  call void @llvm.lifetime.start.p0(i64 8, ptr %4) #3
  store ptr null, ptr %4, align 8, !tbaa !69
  %12 = call noundef nonnull align 8 dereferenceable(8) ptr @_ZN4absl12lts_2024072212log_internal21GetReferenceableValueIDnEERKT_S5_(ptr noundef nonnull align 8 dereferenceable(8) %4)
  %13 = call noundef ptr @_ZN4absl12lts_2024072212log_internal12Check_NEImplIP19alts_tsi_handshakerDnEEPNSt7__cxx1112basic_stringIcSt11char_traitsIcESaIcEEERKT_RKT0_PKc(ptr noundef nonnull align 8 dereferenceable(8) %11, ptr noundef nonnull align 8 dereferenceable(8) %12, ptr noundef @.str.12)
  call void @llvm.lifetime.end.p0(i64 8, ptr %4) #3
  store ptr %13, ptr %3, align 8, !tbaa !71
  %14 = load ptr, ptr %3, align 8, !tbaa !71
  %15 = icmp ne ptr %14, null
  br i1 %15, label %17, label %16

16:                                               ; preds = %10
  call void @llvm.lifetime.end.p0(i64 8, ptr %3) #3
  br label %36

17:                                               ; preds = %10
  call void @llvm.lifetime.start.p0(i64 1, ptr %5) #3
  call void @llvm.lifetime.start.p0(i64 16, ptr %6) #3
  %18 = load ptr, ptr %3, align 8, !tbaa !71
  %19 = call { i64, ptr } @_ZNKSt7__cxx1112basic_stringIcSt11char_traitsIcESaIcEEcvSt17basic_string_viewIcS2_EEv(ptr noundef nonnull align 8 dereferenceable(32) %18) #3
  %20 = getelementptr inbounds nuw { i64, ptr }, ptr %7, i32 0, i32 0
  %21 = extractvalue { i64, ptr } %19, 0
  store i64 %21, ptr %20, align 8
  %22 = getelementptr inbounds nuw { i64, ptr }, ptr %7, i32 0, i32 1
  %23 = extractvalue { i64, ptr } %19, 1
  store ptr %23, ptr %22, align 8
  %24 = getelementptr inbounds nuw { i64, ptr }, ptr %7, i32 0, i32 0
  %25 = load i64, ptr %24, align 8
  %26 = getelementptr inbounds nuw { i64, ptr }, ptr %7, i32 0, i32 1
  %27 = load ptr, ptr %26, align 8
  call void @_ZN4absl12lts_2024072212log_internal15LogMessageFatalC1EPKciSt17basic_string_viewIcSt11char_traitsIcEE(ptr noundef nonnull align 8 dereferenceable(16) %6, ptr noundef @.str, i32 noundef 698, i64 %25, ptr %27) #26
  %28 = invoke noundef nonnull align 8 dereferenceable(16) ptr @_ZN4absl12lts_2024072212log_internal10LogMessage14InternalStreamEv(ptr noundef nonnull align 8 dereferenceable(16) %6)
          to label %29 unwind label %31

29:                                               ; preds = %17
  invoke void @_ZNKO4absl12lts_2024072212log_internal7VoidifyaaINS1_10LogMessageEEEvRKT_(ptr noundef nonnull align 1 dereferenceable(1) %5, ptr noundef nonnull align 8 dereferenceable(16) %28)
          to label %30 unwind label %31

30:                                               ; preds = %29
  call void @_ZN4absl12lts_2024072212log_internal15LogMessageFatalD1Ev(ptr noundef nonnull align 8 dereferenceable(16) %6) #28
  unreachable

31:                                               ; preds = %29, %17
  %32 = landingpad { ptr, i32 }
          cleanup
  %33 = extractvalue { ptr, i32 } %32, 0
  store ptr %33, ptr %8, align 8
  %34 = extractvalue { ptr, i32 } %32, 1
  store i32 %34, ptr %9, align 4
  call void @_ZN4absl12lts_2024072212log_internal15LogMessageFatalD1Ev(ptr noundef nonnull align 8 dereferenceable(16) %6) #28
  unreachable

35:                                               ; No predecessors!
  call void @llvm.lifetime.end.p0(i64 16, ptr %6) #3
  call void @llvm.lifetime.end.p0(i64 1, ptr %5) #3
  call void @llvm.lifetime.end.p0(i64 8, ptr %3) #3
  br label %41

36:                                               ; preds = %16
  %37 = load ptr, ptr %2, align 8, !tbaa !67
  %38 = getelementptr inbounds nuw %struct.alts_tsi_handshaker, ptr %37, i32 0, i32 3
  %39 = load i8, ptr %38, align 1, !tbaa !108, !range !34, !noundef !35
  %40 = trunc i8 %39 to i1
  ret i1 %40

41:                                               ; preds = %35
  %42 = load ptr, ptr %8, align 8
  %43 = load i32, ptr %9, align 4
  %44 = insertvalue { ptr, i32 } poison, ptr %42, 0
  %45 = insertvalue { ptr, i32 } %44, i32 %43, 1
  resume { ptr, i32 } %45
}