; Function Attrs: mustprogress uwtable
define noundef zeroext i1 @_ZN9grpc_core8internal58alts_tsi_handshaker_get_has_sent_start_message_for_testingEP19alts_tsi_handshaker(ptr noundef readonly %0) local_unnamed_addr #3 personality ptr @__gxx_personality_v0 {
  %2 = alloca %"class.absl::lts_20240722::log_internal::LogMessageFatal", align 8
  %.not.i = icmp eq ptr %0, null
  br i1 %.not.i, label %7, label %3, !prof !27

3:                                                ; preds = %1
  %4 = getelementptr inbounds nuw i8, ptr %0, i64 49
  %5 = load i8, ptr %4, align 1, !tbaa !80, !range !62, !noundef !63
  %6 = trunc nuw i8 %5 to i1
  ret i1 %6

7:                                                ; preds = %1
  %8 = tail call noundef nonnull ptr @_ZN4absl12lts_2024072212log_internal17MakeCheckOpStringIPKvS4_EEPNSt7__cxx1112basic_stringIcSt11char_traitsIcESaIcEEET_T0_PKc(ptr noundef null, ptr noundef null, ptr noundef nonnull @.str.12)
  call void @llvm.lifetime.start.p0(i64 16, ptr nonnull %2) #29
  %9 = load ptr, ptr %8, align 8, !tbaa !64
  %10 = getelementptr inbounds nuw i8, ptr %8, i64 8
  %11 = load i64, ptr %10, align 8, !tbaa !67
  call void @_ZN4absl12lts_2024072212log_internal15LogMessageFatalC1EPKciSt17basic_string_viewIcSt11char_traitsIcEE(ptr noundef nonnull align 8 dereferenceable(16) %2, ptr noundef nonnull @.str, i32 noundef 698, i64 %11, ptr %9) #30
  call void @_ZN4absl12lts_2024072212log_internal15LogMessageFatalD1Ev(ptr noundef nonnull align 8 dereferenceable(16) %2) #32
  unreachable
}